target datalayout = "e-m:e-p270:32:32-p271:32:32-p272:64:64-i64:64-i128:128-f80:128-n8:16:32:64-S128"
target triple = "x86_64-pc-linux-gnu"

%struct.btMatrixX = type { i32, i32, i32, i32, i32, [4 x i8], %class.btAlignedObjectArray, %class.btAlignedObjectArray.0 }
%class.btAlignedObjectArray = type <{ [4 x i8], i32, i32, [4 x i8], ptr, i8, [7 x i8] }>
%class.btAlignedObjectArray.0 = type <{ [4 x i8], i32, i32, [4 x i8], ptr, i8, [7 x i8] }>
%class.btMatrix3x3 = type { [3 x %class.btVector3] }
%class.btVector3 = type { [4 x float] }

@.str = private unnamed_addr constant [17 x i8] c"b3Error[%s,%d]:\0A\00", align 1
@.str.1 = private unnamed_addr constant [130 x i8] c"generated/home/dtcxzyw/WorkSpace/Projects/compilers/llvm-opt-benchmark/bench/bullet3/bullet3/src/BulletInverseDynamics/IDMath.cpp\00", align 1
@.str.2 = private unnamed_addr constant [50 x i8] c"size missmatch. b.cols()= %d, result->cols()= %d\0A\00", align 1

; Function Attrs: inlinehint mustprogress nounwind uwtable
define linkonce_odr dso_local noundef nonnull align 4 dereferenceable(4) ptr @_ZN20btAlignedObjectArrayIfEixEi(ptr noundef nonnull align 8 dereferenceable(25) %0, i32 noundef %1) #4 comdat align 2 {
  %3 = alloca ptr, align 8
  %4 = alloca i32, align 4
  store ptr %0, ptr %3, align 8, !tbaa !54
  store i32 %1, ptr %4, align 4, !tbaa !9
  %5 = load ptr, ptr %3, align 8
  %6 = getelementptr inbounds nuw %class.btAlignedObjectArray, ptr %5, i32 0, i32 4
  %7 = load ptr, ptr %6, align 8, !tbaa !56
  %8 = load i32, ptr %4, align 4, !tbaa !9
  %9 = sext i32 %8 to i64
  %10 = getelementptr inbounds float, ptr %7, i64 %9
  ret ptr %10
}

; Function Attrs: mustprogress nounwind uwtable
define linkonce_odr dso_local void @_ZN9btMatrixXIfE7setElemEiif(ptr noundef nonnull align 8 dereferenceable(88) %0, i32 noundef %1, i32 noundef %2, float noundef %3) #1 comdat align 2 {
  %5 = alloca ptr, align 8
  %6 = alloca i32, align 4
  %7 = alloca i32, align 4
  %8 = alloca float, align 4
  store ptr %0, ptr %5, align 8, !tbaa !30
  store i32 %1, ptr %6, align 4, !tbaa !9
  store i32 %2, ptr %7, align 4, !tbaa !9
  store float %3, ptr %8, align 4, !tbaa !14
  %9 = load ptr, ptr %5, align 8
  %10 = getelementptr inbounds nuw %struct.btMatrixX, ptr %9, i32 0, i32 4
  %11 = load i32, ptr %10, align 8, !tbaa !59
  %12 = add nsw i32 %11, 1
  store i32 %12, ptr %10, align 8, !tbaa !59
  %13 = load float, ptr %8, align 4, !tbaa !14
  %14 = getelementptr inbounds nuw %struct.btMatrixX, ptr %9, i32 0, i32 6
  %15 = load i32, ptr %6, align 4, !tbaa !9
  %16 = getelementptr inbounds nuw %struct.btMatrixX, ptr %9, i32 0, i32 1
  %17 = load i32, ptr %16, align 4, !tbaa !32
  %18 = mul nsw i32 %15, %17
  %19 = load i32, ptr %7, align 4, !tbaa !9
  %20 = add nsw i32 %18, %19
  %21 = call noundef nonnull align 4 dereferenceable(4) ptr @_ZN20btAlignedObjectArrayIfEixEi(ptr noundef nonnull align 8 dereferenceable(25) %14, i32 noundef %20)
  store float %13, ptr %21, align 4, !tbaa !14
  ret void
}

; Function Attrs: inlinehint mustprogress nounwind uwtable
define linkonce_odr dso_local noundef nonnull align 4 dereferenceable(4) ptr @_ZNK20btAlignedObjectArrayIfEixEi(ptr noundef nonnull align 8 dereferenceable(25) %0, i32 noundef %1) #4 comdat align 2 {
  %3 = alloca ptr, align 8
  %4 = alloca i32, align 4
  store ptr %0, ptr %3, align 8, !tbaa !54
  store i32 %1, ptr %4, align 4, !tbaa !9
  %5 = load ptr, ptr %3, align 8
  %6 = getelementptr inbounds nuw %class.btAlignedObjectArray, ptr %5, i32 0, i32 4
  %7 = load ptr, ptr %6, align 8, !tbaa !56
  %8 = load i32, ptr %4, align 4, !tbaa !9
  %9 = sext i32 %8 to i64
  %10 = getelementptr inbounds float, ptr %7, i64 %9
  ret ptr %10
}

; Function Attrs: inlinehint mustprogress nounwind uwtable
define linkonce_odr dso_local noundef ptr @_ZNK9btVector3cvPKfEv(ptr noundef nonnull align 4 dereferenceable(16) %0) #4 comdat align 2 {
  %2 = alloca ptr, align 8
  store ptr %0, ptr %2, align 8, !tbaa !52
  %3 = load ptr, ptr %2, align 8
  %4 = getelementptr inbounds nuw %class.btVector3, ptr %3, i32 0, i32 0
  %5 = getelementptr inbounds [4 x float], ptr %4, i64 0, i64 0
  ret ptr %5
}

; Function Attrs: inlinehint mustprogress nounwind uwtable
define linkonce_odr dso_local noundef nonnull align 4 dereferenceable(16) ptr @_ZNK11btMatrix3x3ixEi(ptr noundef nonnull align 4 dereferenceable(48) %0, i32 noundef %1) #4 comdat align 2 {
  %3 = alloca ptr, align 8
  %4 = alloca i32, align 4
  store ptr %0, ptr %3, align 8, !tbaa !57
  store i32 %1, ptr %4, align 4, !tbaa !9
  %5 = load ptr, ptr %3, align 8
  %6 = getelementptr inbounds nuw %class.btMatrix3x3, ptr %5, i32 0, i32 0
  %7 = load i32, ptr %4, align 4, !tbaa !9
  %8 = sext i32 %7 to i64
  %9 = getelementptr inbounds [3 x %class.btVector3], ptr %6, i64 0, i64 %8
  ret ptr %9
}

; Function Attrs: inlinehint mustprogress uwtable
define linkonce_odr dso_local void @_ZN24btInverseDynamicsBullet312setMat3xElemEiifPNS_5mat3xE(i32 noundef %0, i32 noundef %1, float noundef %2, ptr noundef %3) #8 comdat {
  %5 = alloca i32, align 4
  %6 = alloca i32, align 4
  %7 = alloca float, align 4
  %8 = alloca ptr, align 8
  store i32 %0, ptr %5, align 4, !tbaa !9
  store i32 %1, ptr %6, align 4, !tbaa !9
  store float %2, ptr %7, align 4, !tbaa !14
  store ptr %3, ptr %8, align 8, !tbaa !26
  %9 = load ptr, ptr %8, align 8, !tbaa !26
  %10 = load i32, ptr %5, align 4, !tbaa !9
  %11 = load i32, ptr %6, align 4, !tbaa !9
  %12 = load float, ptr %7, align 4, !tbaa !14
  call void @_ZN9btMatrixXIfE7setElemEiif(ptr noundef nonnull align 8 dereferenceable(88) %9, i32 noundef %10, i32 noundef %11, float noundef %12)
  ret void
}

; Function Attrs: mustprogress nounwind uwtable
define linkonce_odr dso_local noundef nonnull align 4 dereferenceable(4) ptr @_ZNK9btMatrixXIfEclEii(ptr noundef nonnull align 8 dereferenceable(88) %0, i32 noundef %1, i32 noundef %2) #1 comdat align 2 {
  %4 = alloca ptr, align 8
  %5 = alloca i32, align 4
  %6 = alloca i32, align 4
  store ptr %0, ptr %4, align 8, !tbaa !30
  store i32 %1, ptr %5, align 4, !tbaa !9
  store i32 %2, ptr %6, align 4, !tbaa !9
  %7 = load ptr, ptr %4, align 8
  %8 = getelementptr inbounds nuw %struct.btMatrixX, ptr %7, i32 0, i32 6
  %9 = load i32, ptr %6, align 4, !tbaa !9
  %10 = load i32, ptr %5, align 4, !tbaa !9
  %11 = getelementptr inbounds nuw %struct.btMatrixX, ptr %7, i32 0, i32 1
  %12 = load i32, ptr %11, align 4, !tbaa !32
  %13 = mul nsw i32 %10, %12
  %14 = add nsw i32 %9, %13
  %15 = call noundef nonnull align 4 dereferenceable(4) ptr @_ZNK20btAlignedObjectArrayIfEixEi(ptr noundef nonnull align 8 dereferenceable(25) %8, i32 noundef %14)
  ret ptr %15
}

; Function Attrs: mustprogress uwtable
define linkonce_odr dso_local noundef nonnull align 4 dereferenceable(4) ptr @_ZNK24btInverseDynamicsBullet35mat33clEii(ptr noundef nonnull align 4 dereferenceable(48) %0, i32 noundef %1, i32 noundef %2) #2 comdat align 2 {
  %4 = alloca ptr, align 8
  %5 = alloca i32, align 4
  %6 = alloca i32, align 4
  store ptr %0, ptr %4, align 8, !tbaa !22
  store i32 %1, ptr %5, align 4, !tbaa !9
  store i32 %2, ptr %6, align 4, !tbaa !9
  %7 = load ptr, ptr %4, align 8
  %8 = load i32, ptr %5, align 4, !tbaa !9
  %9 = call noundef nonnull align 4 dereferenceable(16) ptr @_ZNK11btMatrix3x3ixEi(ptr noundef nonnull align 4 dereferenceable(48) %7, i32 noundef %8)
  %10 = call noundef ptr @_ZNK9btVector3cvPKfEv(ptr noundef nonnull align 4 dereferenceable(16) %9)
  %11 = load i32, ptr %6, align 4, !tbaa !9
  %12 = sext i32 %11 to i64
  %13 = getelementptr inbounds float, ptr %10, i64 %12
  ret ptr %13
}

; Function Attrs: mustprogress nounwind uwtable
define linkonce_odr dso_local noundef i32 @_ZNK9btMatrixXIfE4colsEv(ptr noundef nonnull align 8 dereferenceable(88) %0) #1 comdat align 2 {
  %2 = alloca ptr, align 8
  store ptr %0, ptr %2, align 8, !tbaa !30
  %3 = load ptr, ptr %2, align 8
  %4 = getelementptr inbounds nuw %struct.btMatrixX, ptr %3, i32 0, i32 1
  %5 = load i32, ptr %4, align 4, !tbaa !32
  ret i32 %5
}

; Function Attrs: mustprogress uwtable
define dso_local void @_ZN24btInverseDynamicsBullet33mulERKNS_5mat33ERKNS_5mat3xEPS3_(ptr noundef nonnull align 4 dereferenceable(48) %0, ptr noundef nonnull align 8 dereferenceable(88) %1, ptr noundef %2) #2 {
  %4 = alloca ptr, align 8
  %5 = alloca ptr, align 8
  %6 = alloca ptr, align 8
  %7 = alloca i32, align 4
  %8 = alloca float, align 4
  %9 = alloca float, align 4
  %10 = alloca float, align 4
  store ptr %0, ptr %4, align 8, !tbaa !22
  store ptr %1, ptr %5, align 8, !tbaa !26
  store ptr %2, ptr %6, align 8, !tbaa !26
  %11 = load ptr, ptr %5, align 8, !tbaa !26
  %12 = call noundef i32 @_ZNK9btMatrixXIfE4colsEv(ptr noundef nonnull align 8 dereferenceable(88) %11)
  %13 = load ptr, ptr %6, align 8, !tbaa !26
  %14 = call noundef i32 @_ZNK9btMatrixXIfE4colsEv(ptr noundef nonnull align 8 dereferenceable(88) %13)
  %15 = icmp ne i32 %12, %14
  br i1 %15, label %16, label %23

16:                                               ; preds = %3
  br label %17

17:                                               ; preds = %16
  call void (ptr, ...) @b3OutputErrorMessageVarArgsInternal(ptr noundef @.str, ptr noundef @.str.1, i32 noundef 102)
  %18 = load ptr, ptr %5, align 8, !tbaa !26
  %19 = call noundef i32 @_ZNK9btMatrixXIfE4colsEv(ptr noundef nonnull align 8 dereferenceable(88) %18)
  %20 = load ptr, ptr %6, align 8, !tbaa !26
  %21 = call noundef i32 @_ZNK9btMatrixXIfE4colsEv(ptr noundef nonnull align 8 dereferenceable(88) %20)
  call void (ptr, ...) @b3OutputErrorMessageVarArgsInternal(ptr noundef @.str.2, i32 noundef %19, i32 noundef %21)
  br label %22

22:                                               ; preds = %17
  call void @abort() #11
  unreachable

23:                                               ; preds = %3
  call void @llvm.lifetime.start.p0(i64 4, ptr %7) #10
  store i32 0, ptr %7, align 4, !tbaa !9
  br label %24

24:                                               ; preds = %112, %23
  %25 = load i32, ptr %7, align 4, !tbaa !9
  %26 = load ptr, ptr %5, align 8, !tbaa !26
  %27 = call noundef i32 @_ZNK9btMatrixXIfE4colsEv(ptr noundef nonnull align 8 dereferenceable(88) %26)
  %28 = icmp slt i32 %25, %27
  br i1 %28, label %30, label %29

29:                                               ; preds = %24
  call void @llvm.lifetime.end.p0(i64 4, ptr %7) #10
  br label %115

30:                                               ; preds = %24
  call void @llvm.lifetime.start.p0(i64 4, ptr %8) #10
  %31 = load ptr, ptr %4, align 8, !tbaa !22
  %32 = call noundef nonnull align 4 dereferenceable(4) ptr @_ZNK24btInverseDynamicsBullet35mat33clEii(ptr noundef nonnull align 4 dereferenceable(48) %31, i32 noundef 0, i32 noundef 0)
  %33 = load float, ptr %32, align 4, !tbaa !14
  %34 = load ptr, ptr %5, align 8, !tbaa !26
  %35 = load i32, ptr %7, align 4, !tbaa !9
  %36 = call noundef nonnull align 4 dereferenceable(4) ptr @_ZNK9btMatrixXIfEclEii(ptr noundef nonnull align 8 dereferenceable(88) %34, i32 noundef 0, i32 noundef %35)
  %37 = load float, ptr %36, align 4, !tbaa !14
  %38 = load ptr, ptr %4, align 8, !tbaa !22
  %39 = call noundef nonnull align 4 dereferenceable(4) ptr @_ZNK24btInverseDynamicsBullet35mat33clEii(ptr noundef nonnull align 4 dereferenceable(48) %38, i32 noundef 0, i32 noundef 1)
  %40 = load float, ptr %39, align 4, !tbaa !14
  %41 = load ptr, ptr %5, align 8, !tbaa !26
  %42 = load i32, ptr %7, align 4, !tbaa !9
  %43 = call noundef nonnull align 4 dereferenceable(4) ptr @_ZNK9btMatrixXIfEclEii(ptr noundef nonnull align 8 dereferenceable(88) %41, i32 noundef 1, i32 noundef %42)
  %44 = load float, ptr %43, align 4, !tbaa !14
  %45 = fmul float %40, %44
  %46 = call float @llvm.fmuladd.f32(float %33, float %37, float %45)
  %47 = load ptr, ptr %4, align 8, !tbaa !22
  %48 = call noundef nonnull align 4 dereferenceable(4) ptr @_ZNK24btInverseDynamicsBullet35mat33clEii(ptr noundef nonnull align 4 dereferenceable(48) %47, i32 noundef 0, i32 noundef 2)
  %49 = load float, ptr %48, align 4, !tbaa !14
  %50 = load ptr, ptr %5, align 8, !tbaa !26
  %51 = load i32, ptr %7, align 4, !tbaa !9
  %52 = call noundef nonnull align 4 dereferenceable(4) ptr @_ZNK9btMatrixXIfEclEii(ptr noundef nonnull align 8 dereferenceable(88) %50, i32 noundef 2, i32 noundef %51)
  %53 = load float, ptr %52, align 4, !tbaa !14
  %54 = call float @llvm.fmuladd.f32(float %49, float %53, float %46)
  store float %54, ptr %8, align 4, !tbaa !14
  call void @llvm.lifetime.start.p0(i64 4, ptr %9) #10
  %55 = load ptr, ptr %4, align 8, !tbaa !22
  %56 = call noundef nonnull align 4 dereferenceable(4) ptr @_ZNK24btInverseDynamicsBullet35mat33clEii(ptr noundef nonnull align 4 dereferenceable(48) %55, i32 noundef 1, i32 noundef 0)
  %57 = load float, ptr %56, align 4, !tbaa !14
  %58 = load ptr, ptr %5, align 8, !tbaa !26
  %59 = load i32, ptr %7, align 4, !tbaa !9
  %60 = call noundef nonnull align 4 dereferenceable(4) ptr @_ZNK9btMatrixXIfEclEii(ptr noundef nonnull align 8 dereferenceable(88) %58, i32 noundef 0, i32 noundef %59)
  %61 = load float, ptr %60, align 4, !tbaa !14
  %62 = load ptr, ptr %4, align 8, !tbaa !22
  %63 = call noundef nonnull align 4 dereferenceable(4) ptr @_ZNK24btInverseDynamicsBullet35mat33clEii(ptr noundef nonnull align 4 dereferenceable(48) %62, i32 noundef 1, i32 noundef 1)
  %64 = load float, ptr %63, align 4, !tbaa !14
  %65 = load ptr, ptr %5, align 8, !tbaa !26
  %66 = load i32, ptr %7, align 4, !tbaa !9
  %67 = call noundef nonnull align 4 dereferenceable(4) ptr @_ZNK9btMatrixXIfEclEii(ptr noundef nonnull align 8 dereferenceable(88) %65, i32 noundef 1, i32 noundef %66)
  %68 = load float, ptr %67, align 4, !tbaa !14
  %69 = fmul float %64, %68
  %70 = call float @llvm.fmuladd.f32(float %57, float %61, float %69)
  %71 = load ptr, ptr %4, align 8, !tbaa !22
  %72 = call noundef nonnull align 4 dereferenceable(4) ptr @_ZNK24btInverseDynamicsBullet35mat33clEii(ptr noundef nonnull align 4 dereferenceable(48) %71, i32 noundef 1, i32 noundef 2)
  %73 = load float, ptr %72, align 4, !tbaa !14
  %74 = load ptr, ptr %5, align 8, !tbaa !26
  %75 = load i32, ptr %7, align 4, !tbaa !9
  %76 = call noundef nonnull align 4 dereferenceable(4) ptr @_ZNK9btMatrixXIfEclEii(ptr noundef nonnull align 8 dereferenceable(88) %74, i32 noundef 2, i32 noundef %75)
  %77 = load float, ptr %76, align 4, !tbaa !14
  %78 = call float @llvm.fmuladd.f32(float %73, float %77, float %70)
  store float %78, ptr %9, align 4, !tbaa !14
  call void @llvm.lifetime.start.p0(i64 4, ptr %10) #10
  %79 = load ptr, ptr %4, align 8, !tbaa !22
  %80 = call noundef nonnull align 4 dereferenceable(4) ptr @_ZNK24btInverseDynamicsBullet35mat33clEii(ptr noundef nonnull align 4 dereferenceable(48) %79, i32 noundef 2, i32 noundef 0)
  %81 = load float, ptr %80, align 4, !tbaa !14
  %82 = load ptr, ptr %5, align 8, !tbaa !26
  %83 = load i32, ptr %7, align 4, !tbaa !9
  %84 = call noundef nonnull align 4 dereferenceable(4) ptr @_ZNK9btMatrixXIfEclEii(ptr noundef nonnull align 8 dereferenceable(88) %82, i32 noundef 0, i32 noundef %83)
  %85 = load float, ptr %84, align 4, !tbaa !14
  %86 = load ptr, ptr %4, align 8, !tbaa !22
  %87 = call noundef nonnull align 4 dereferenceable(4) ptr @_ZNK24btInverseDynamicsBullet35mat33clEii(ptr noundef nonnull align 4 dereferenceable(48) %86, i32 noundef 2, i32 noundef 1)
  %88 = load float, ptr %87, align 4, !tbaa !14
  %89 = load ptr, ptr %5, align 8, !tbaa !26
  %90 = load i32, ptr %7, align 4, !tbaa !9
  %91 = call noundef nonnull align 4 dereferenceable(4) ptr @_ZNK9btMatrixXIfEclEii(ptr noundef nonnull align 8 dereferenceable(88) %89, i32 noundef 1, i32 noundef %90)
  %92 = load float, ptr %91, align 4, !tbaa !14
  %93 = fmul float %88, %92
  %94 = call float @llvm.fmuladd.f32(float %81, float %85, float %93)
  %95 = load ptr, ptr %4, align 8, !tbaa !22
  %96 = call noundef nonnull align 4 dereferenceable(4) ptr @_ZNK24btInverseDynamicsBullet35mat33clEii(ptr noundef nonnull align 4 dereferenceable(48) %95, i32 noundef 2, i32 noundef 2)
  %97 = load float, ptr %96, align 4, !tbaa !14
  %98 = load ptr, ptr %5, align 8, !tbaa !26
  %99 = load i32, ptr %7, align 4, !tbaa !9
  %100 = call noundef nonnull align 4 dereferenceable(4) ptr @_ZNK9btMatrixXIfEclEii(ptr noundef nonnull align 8 dereferenceable(88) %98, i32 noundef 2, i32 noundef %99)
  %101 = load float, ptr %100, align 4, !tbaa !14
  %102 = call float @llvm.fmuladd.f32(float %97, float %101, float %94)
  store float %102, ptr %10, align 4, !tbaa !14
  %103 = load i32, ptr %7, align 4, !tbaa !9
  %104 = load float, ptr %8, align 4, !tbaa !14
  %105 = load ptr, ptr %6, align 8, !tbaa !26
  call void @_ZN24btInverseDynamicsBullet312setMat3xElemEiifPNS_5mat3xE(i32 noundef 0, i32 noundef %103, float noundef %104, ptr noundef %105)
  %106 = load i32, ptr %7, align 4, !tbaa !9
  %107 = load float, ptr %9, align 4, !tbaa !14
  %108 = load ptr, ptr %6, align 8, !tbaa !26
  call void @_ZN24btInverseDynamicsBullet312setMat3xElemEiifPNS_5mat3xE(i32 noundef 1, i32 noundef %106, float noundef %107, ptr noundef %108)
  %109 = load i32, ptr %7, align 4, !tbaa !9
  %110 = load float, ptr %10, align 4, !tbaa !14
  %111 = load ptr, ptr %6, align 8, !tbaa !26
  call void @_ZN24btInverseDynamicsBullet312setMat3xElemEiifPNS_5mat3xE(i32 noundef 2, i32 noundef %109, float noundef %110, ptr noundef %111)
  call void @llvm.lifetime.end.p0(i64 4, ptr %10) #10
  call void @llvm.lifetime.end.p0(i64 4, ptr %9) #10
  call void @llvm.lifetime.end.p0(i64 4, ptr %8) #10
  br label %112

112:                                              ; preds = %30
  %113 = load i32, ptr %7, align 4, !tbaa !9
  %114 = add nsw i32 %113, 1
  store i32 %114, ptr %7, align 4, !tbaa !9
  br label %24, !llvm.loop !42

115:                                              ; preds = %29
  ret void
}