; Function Attrs: mustprogress uwtable
define dso_local void @_ZN24btInverseDynamicsBullet33mulERKNS_5mat33ERKNS_5mat3xEPS3_(ptr noundef nonnull readonly align 4 captures(none) dereferenceable(48) %0, ptr noundef nonnull readonly align 8 captures(none) dereferenceable(88) %1, ptr noundef captures(none) %2) local_unnamed_addr #5 {
  %4 = getelementptr inbounds nuw i8, ptr %1, i64 4
  %5 = load i32, ptr %4, align 4, !tbaa !19
  %6 = getelementptr inbounds nuw i8, ptr %2, i64 4
  %7 = load i32, ptr %6, align 4, !tbaa !19
  %.not = icmp eq i32 %5, %7
  br i1 %.not, label %.preheader, label %26

.preheader:                                       ; preds = %3
  %8 = icmp sgt i32 %5, 0
  br i1 %8, label %.lr.ph, label %30

.lr.ph:                                           ; preds = %.preheader
  %9 = getelementptr inbounds nuw i8, ptr %1, i64 40
  %10 = load ptr, ptr %9, align 8, !tbaa !15
  %11 = getelementptr inbounds nuw i8, ptr %0, i64 4
  %12 = getelementptr inbounds nuw i8, ptr %0, i64 8
  %13 = shl nuw nsw i32 %5, 1
  %14 = getelementptr inbounds nuw i8, ptr %0, i64 16
  %15 = getelementptr inbounds nuw i8, ptr %0, i64 20
  %16 = getelementptr inbounds nuw i8, ptr %0, i64 24
  %17 = getelementptr inbounds nuw i8, ptr %0, i64 32
  %18 = getelementptr inbounds nuw i8, ptr %0, i64 36
  %19 = getelementptr inbounds nuw i8, ptr %0, i64 40
  %20 = getelementptr inbounds nuw i8, ptr %2, i64 16
  %21 = getelementptr inbounds nuw i8, ptr %2, i64 40
  %22 = load ptr, ptr %21, align 8, !tbaa !15
  %.promoted = load i32, ptr %20, align 8, !tbaa !26
  %23 = zext nneg i32 %13 to i64
  %24 = zext nneg i32 %5 to i64
  %25 = mul i32 %5, 3
  %wide.trip.count = zext nneg i32 %5 to i64
  br label %31

26:                                               ; preds = %3
  tail call void (ptr, ...) @b3OutputErrorMessageVarArgsInternal(ptr noundef nonnull @.str, ptr noundef nonnull @.str.1, i32 noundef 102)
  %27 = load i32, ptr %4, align 4, !tbaa !19
  %28 = load i32, ptr %6, align 4, !tbaa !19
  tail call void (ptr, ...) @b3OutputErrorMessageVarArgsInternal(ptr noundef nonnull @.str.2, i32 noundef %27, i32 noundef %28)
  tail call void @abort() #13
  unreachable

._crit_edge:                                      ; preds = %31
  %29 = add i32 %.promoted, %25
  store i32 %29, ptr %20, align 8, !tbaa !26
  br label %30

30:                                               ; preds = %._crit_edge, %.preheader
  ret void

31:                                               ; preds = %.lr.ph, %31
  %indvars.iv = phi i64 [ 0, %.lr.ph ], [ %indvars.iv.next, %31 ]
  %32 = load float, ptr %0, align 4, !tbaa !4
  %33 = getelementptr inbounds nuw float, ptr %10, i64 %indvars.iv
  %34 = load float, ptr %33, align 4, !tbaa !4
  %35 = load float, ptr %11, align 4, !tbaa !4
  %36 = add nuw nsw i64 %indvars.iv, %24
  %37 = getelementptr inbounds nuw float, ptr %10, i64 %36
  %38 = load float, ptr %37, align 4, !tbaa !4
  %39 = fmul float %35, %38
  %40 = tail call float @llvm.fmuladd.f32(float %32, float %34, float %39)
  %41 = load float, ptr %12, align 4, !tbaa !4
  %42 = add nuw nsw i64 %indvars.iv, %23
  %43 = getelementptr inbounds nuw float, ptr %10, i64 %42
  %44 = load float, ptr %43, align 4, !tbaa !4
  %45 = tail call float @llvm.fmuladd.f32(float %41, float %44, float %40)
  %46 = load float, ptr %14, align 4, !tbaa !4
  %47 = load float, ptr %15, align 4, !tbaa !4
  %48 = fmul float %38, %47
  %49 = tail call float @llvm.fmuladd.f32(float %46, float %34, float %48)
  %50 = load float, ptr %16, align 4, !tbaa !4
  %51 = tail call float @llvm.fmuladd.f32(float %50, float %44, float %49)
  %52 = load float, ptr %17, align 4, !tbaa !4
  %53 = load float, ptr %18, align 4, !tbaa !4
  %54 = fmul float %38, %53
  %55 = tail call float @llvm.fmuladd.f32(float %52, float %34, float %54)
  %56 = load float, ptr %19, align 4, !tbaa !4
  %57 = tail call float @llvm.fmuladd.f32(float %56, float %44, float %55)
  %58 = getelementptr inbounds nuw float, ptr %22, i64 %indvars.iv
  store float %45, ptr %58, align 4, !tbaa !4
  %59 = getelementptr inbounds nuw float, ptr %22, i64 %36
  store float %51, ptr %59, align 4, !tbaa !4
  %60 = getelementptr inbounds nuw float, ptr %22, i64 %42
  store float %57, ptr %60, align 4, !tbaa !4
  %indvars.iv.next = add nuw nsw i64 %indvars.iv, 1
  %exitcond.not = icmp eq i64 %indvars.iv.next, %wide.trip.count
  br i1 %exitcond.not, label %._crit_edge, label %31, !llvm.loop !27
}